target datalayout = "e-m:e-p270:32:32-p271:32:32-p272:64:64-i64:64-i128:128-f80:128-n8:16:32:64-S128"
target triple = "x86_64-pc-linux-gnu"

%struct.BIT_DStream_t = type { i64, i32, ptr, ptr, ptr }

; Function Attrs: inlinehint nounwind uwtable
define internal i64 @MEM_swap64(i64 noundef %0) #4 {
  %2 = alloca i64, align 8
  store i64 %0, ptr %2, align 8, !tbaa !9
  %3 = load i64, ptr %2, align 8, !tbaa !9
  %4 = call i64 @llvm.bswap.i64(i64 %3)
  ret i64 %4
}

; Function Attrs: inlinehint nounwind uwtable
define internal i64 @MEM_read64(ptr noundef %0) #4 {
  %2 = alloca ptr, align 8
  store ptr %0, ptr %2, align 8, !tbaa !8
  %3 = load ptr, ptr %2, align 8, !tbaa !8
  %4 = load i64, ptr %3, align 1, !tbaa !9
  ret i64 %4
}

; Function Attrs: inlinehint nounwind uwtable
define internal i32 @MEM_swap32(i32 noundef %0) #4 {
  %2 = alloca i32, align 4
  store i32 %0, ptr %2, align 4, !tbaa !11
  %3 = load i32, ptr %2, align 4, !tbaa !11
  %4 = call i32 @llvm.bswap.i32(i32 %3)
  ret i32 %4
}

; Function Attrs: inlinehint nounwind uwtable
define internal i32 @MEM_read32(ptr noundef %0) #4 {
  %2 = alloca ptr, align 8
  store ptr %0, ptr %2, align 8, !tbaa !8
  %3 = load ptr, ptr %2, align 8, !tbaa !8
  %4 = load i32, ptr %3, align 1, !tbaa !11
  ret i32 %4
}

; Function Attrs: inlinehint nounwind uwtable
define internal i32 @MEM_isLittleEndian() #4 {
  ret i32 1
}

; Function Attrs: inlinehint nounwind uwtable
define internal i32 @ZSTD_countLeadingZeros32(i32 noundef %0) #4 {
  %2 = alloca i32, align 4
  store i32 %0, ptr %2, align 4, !tbaa !11
  %3 = load i32, ptr %2, align 4, !tbaa !11
  %4 = call i32 @llvm.ctlz.i32(i32 %3, i1 true)
  ret i32 %4
}

; Function Attrs: inlinehint nounwind uwtable
define internal i64 @MEM_readLE64(ptr noundef %0) #4 {
  %2 = alloca i64, align 8
  %3 = alloca ptr, align 8
  store ptr %0, ptr %3, align 8, !tbaa !8
  %4 = call i32 @MEM_isLittleEndian()
  %5 = icmp ne i32 %4, 0
  br i1 %5, label %6, label %9

6:                                                ; preds = %1
  %7 = load ptr, ptr %3, align 8, !tbaa !8
  %8 = call i64 @MEM_read64(ptr noundef %7)
  store i64 %8, ptr %2, align 8
  br label %13

9:                                                ; preds = %1
  %10 = load ptr, ptr %3, align 8, !tbaa !8
  %11 = call i64 @MEM_read64(ptr noundef %10)
  %12 = call i64 @MEM_swap64(i64 noundef %11)
  store i64 %12, ptr %2, align 8
  br label %13

13:                                               ; preds = %9, %6
  %14 = load i64, ptr %2, align 8
  ret i64 %14
}

; Function Attrs: inlinehint nounwind uwtable
define internal i32 @MEM_readLE32(ptr noundef %0) #4 {
  %2 = alloca i32, align 4
  %3 = alloca ptr, align 8
  store ptr %0, ptr %3, align 8, !tbaa !8
  %4 = call i32 @MEM_isLittleEndian()
  %5 = icmp ne i32 %4, 0
  br i1 %5, label %6, label %9

6:                                                ; preds = %1
  %7 = load ptr, ptr %3, align 8, !tbaa !8
  %8 = call i32 @MEM_read32(ptr noundef %7)
  store i32 %8, ptr %2, align 4
  br label %13

9:                                                ; preds = %1
  %10 = load ptr, ptr %3, align 8, !tbaa !8
  %11 = call i32 @MEM_read32(ptr noundef %10)
  %12 = call i32 @MEM_swap32(i32 noundef %11)
  store i32 %12, ptr %2, align 4
  br label %13

13:                                               ; preds = %9, %6
  %14 = load i32, ptr %2, align 4
  ret i32 %14
}

; Function Attrs: inlinehint nounwind uwtable
define internal i32 @MEM_32bits() #4 {
  ret i32 0
}

; Function Attrs: inlinehint nounwind uwtable
define internal i32 @ZSTD_highbit32(i32 noundef %0) #4 {
  %2 = alloca i32, align 4
  store i32 %0, ptr %2, align 4, !tbaa !11
  %3 = load i32, ptr %2, align 4, !tbaa !11
  %4 = call i32 @ZSTD_countLeadingZeros32(i32 noundef %3)
  %5 = sub i32 31, %4
  ret i32 %5
}

; Function Attrs: inlinehint nounwind uwtable
define internal i64 @MEM_readLEST(ptr noundef %0) #4 {
  %2 = alloca i64, align 8
  %3 = alloca ptr, align 8
  store ptr %0, ptr %3, align 8, !tbaa !8
  %4 = call i32 @MEM_32bits()
  %5 = icmp ne i32 %4, 0
  br i1 %5, label %6, label %10

6:                                                ; preds = %1
  %7 = load ptr, ptr %3, align 8, !tbaa !8
  %8 = call i32 @MEM_readLE32(ptr noundef %7)
  %9 = zext i32 %8 to i64
  store i64 %9, ptr %2, align 8
  br label %13

10:                                               ; preds = %1
  %11 = load ptr, ptr %3, align 8, !tbaa !8
  %12 = call i64 @MEM_readLE64(ptr noundef %11)
  store i64 %12, ptr %2, align 8
  br label %13

13:                                               ; preds = %10, %6
  %14 = load i64, ptr %2, align 8
  ret i64 %14
}

; Function Attrs: inlinehint nounwind uwtable
define internal i64 @BIT_initDStream(ptr noundef %0, ptr noundef %1, i64 noundef %2) #4 {
  %4 = alloca i64, align 8
  %5 = alloca ptr, align 8
  %6 = alloca ptr, align 8
  %7 = alloca i64, align 8
  %8 = alloca i8, align 1
  %9 = alloca i32, align 4
  %10 = alloca i8, align 1
  store ptr %0, ptr %5, align 8, !tbaa !8
  store ptr %1, ptr %6, align 8, !tbaa !8
  store i64 %2, ptr %7, align 8, !tbaa !9
  %11 = load i64, ptr %7, align 8, !tbaa !9
  %12 = icmp ult i64 %11, 1
  br i1 %12, label %13, label %15

13:                                               ; preds = %3
  %14 = load ptr, ptr %5, align 8, !tbaa !8
  call void @llvm.memset.p0.i64(ptr align 8 %14, i8 0, i64 40, i1 false)
  store i64 -72, ptr %4, align 8
  br label %178

15:                                               ; preds = %3
  %16 = load ptr, ptr %6, align 8, !tbaa !8
  %17 = load ptr, ptr %5, align 8, !tbaa !8
  %18 = getelementptr inbounds nuw %struct.BIT_DStream_t, ptr %17, i32 0, i32 3
  store ptr %16, ptr %18, align 8, !tbaa !63
  %19 = load ptr, ptr %5, align 8, !tbaa !8
  %20 = getelementptr inbounds nuw %struct.BIT_DStream_t, ptr %19, i32 0, i32 3
  %21 = load ptr, ptr %20, align 8, !tbaa !63
  %22 = getelementptr inbounds nuw i8, ptr %21, i64 8
  %23 = load ptr, ptr %5, align 8, !tbaa !8
  %24 = getelementptr inbounds nuw %struct.BIT_DStream_t, ptr %23, i32 0, i32 4
  store ptr %22, ptr %24, align 8, !tbaa !65
  %25 = load i64, ptr %7, align 8, !tbaa !9
  %26 = icmp uge i64 %25, 8
  br i1 %26, label %27, label %66

27:                                               ; preds = %15
  %28 = load ptr, ptr %6, align 8, !tbaa !8
  %29 = load i64, ptr %7, align 8, !tbaa !9
  %30 = getelementptr inbounds nuw i8, ptr %28, i64 %29
  %31 = getelementptr inbounds i8, ptr %30, i64 -8
  %32 = load ptr, ptr %5, align 8, !tbaa !8
  %33 = getelementptr inbounds nuw %struct.BIT_DStream_t, ptr %32, i32 0, i32 2
  store ptr %31, ptr %33, align 8, !tbaa !66
  %34 = load ptr, ptr %5, align 8, !tbaa !8
  %35 = getelementptr inbounds nuw %struct.BIT_DStream_t, ptr %34, i32 0, i32 2
  %36 = load ptr, ptr %35, align 8, !tbaa !66
  %37 = call i64 @MEM_readLEST(ptr noundef %36)
  %38 = load ptr, ptr %5, align 8, !tbaa !8
  %39 = getelementptr inbounds nuw %struct.BIT_DStream_t, ptr %38, i32 0, i32 0
  store i64 %37, ptr %39, align 8, !tbaa !67
  call void @llvm.lifetime.start.p0(i64 1, ptr %8) #10
  %40 = load ptr, ptr %6, align 8, !tbaa !8
  %41 = load i64, ptr %7, align 8, !tbaa !9
  %42 = sub i64 %41, 1
  %43 = getelementptr inbounds nuw i8, ptr %40, i64 %42
  %44 = load i8, ptr %43, align 1, !tbaa !19
  store i8 %44, ptr %8, align 1, !tbaa !19
  %45 = load i8, ptr %8, align 1, !tbaa !19
  %46 = zext i8 %45 to i32
  %47 = icmp ne i32 %46, 0
  br i1 %47, label %48, label %53

48:                                               ; preds = %27
  %49 = load i8, ptr %8, align 1, !tbaa !19
  %50 = zext i8 %49 to i32
  %51 = call i32 @ZSTD_highbit32(i32 noundef %50)
  %52 = sub i32 8, %51
  br label %54

53:                                               ; preds = %27
  br label %54

54:                                               ; preds = %53, %48
  %55 = phi i32 [ %52, %48 ], [ 0, %53 ]
  %56 = load ptr, ptr %5, align 8, !tbaa !8
  %57 = getelementptr inbounds nuw %struct.BIT_DStream_t, ptr %56, i32 0, i32 1
  store i32 %55, ptr %57, align 8, !tbaa !68
  %58 = load i8, ptr %8, align 1, !tbaa !19
  %59 = zext i8 %58 to i32
  %60 = icmp eq i32 %59, 0
  br i1 %60, label %61, label %62

61:                                               ; preds = %54
  store i64 -1, ptr %4, align 8
  store i32 1, ptr %9, align 4
  br label %63

62:                                               ; preds = %54
  store i32 0, ptr %9, align 4
  br label %63

63:                                               ; preds = %62, %61
  call void @llvm.lifetime.end.p0(i64 1, ptr %8) #10
  %64 = load i32, ptr %9, align 4
  switch i32 %64, label %180 [
    i32 0, label %65
    i32 1, label %178
  ]

65:                                               ; preds = %63
  br label %176

66:                                               ; preds = %15
  %67 = load ptr, ptr %5, align 8, !tbaa !8
  %68 = getelementptr inbounds nuw %struct.BIT_DStream_t, ptr %67, i32 0, i32 3
  %69 = load ptr, ptr %68, align 8, !tbaa !63
  %70 = load ptr, ptr %5, align 8, !tbaa !8
  %71 = getelementptr inbounds nuw %struct.BIT_DStream_t, ptr %70, i32 0, i32 2
  store ptr %69, ptr %71, align 8, !tbaa !66
  %72 = load ptr, ptr %5, align 8, !tbaa !8
  %73 = getelementptr inbounds nuw %struct.BIT_DStream_t, ptr %72, i32 0, i32 3
  %74 = load ptr, ptr %73, align 8, !tbaa !63
  %75 = load i8, ptr %74, align 1, !tbaa !19
  %76 = zext i8 %75 to i64
  %77 = load ptr, ptr %5, align 8, !tbaa !8
  %78 = getelementptr inbounds nuw %struct.BIT_DStream_t, ptr %77, i32 0, i32 0
  store i64 %76, ptr %78, align 8, !tbaa !67
  %79 = load i64, ptr %7, align 8, !tbaa !9
  switch i64 %79, label %140 [
    i64 7, label %80
    i64 6, label %90
    i64 5, label %100
    i64 4, label %110
    i64 3, label %120
    i64 2, label %130
  ]

80:                                               ; preds = %66
  %81 = load ptr, ptr %6, align 8, !tbaa !8
  %82 = getelementptr inbounds i8, ptr %81, i64 6
  %83 = load i8, ptr %82, align 1, !tbaa !19
  %84 = zext i8 %83 to i64
  %85 = shl i64 %84, 48
  %86 = load ptr, ptr %5, align 8, !tbaa !8
  %87 = getelementptr inbounds nuw %struct.BIT_DStream_t, ptr %86, i32 0, i32 0
  %88 = load i64, ptr %87, align 8, !tbaa !67
  %89 = add i64 %88, %85
  store i64 %89, ptr %87, align 8, !tbaa !67
  br label %90

90:                                               ; preds = %66, %80
  %91 = load ptr, ptr %6, align 8, !tbaa !8
  %92 = getelementptr inbounds i8, ptr %91, i64 5
  %93 = load i8, ptr %92, align 1, !tbaa !19
  %94 = zext i8 %93 to i64
  %95 = shl i64 %94, 40
  %96 = load ptr, ptr %5, align 8, !tbaa !8
  %97 = getelementptr inbounds nuw %struct.BIT_DStream_t, ptr %96, i32 0, i32 0
  %98 = load i64, ptr %97, align 8, !tbaa !67
  %99 = add i64 %98, %95
  store i64 %99, ptr %97, align 8, !tbaa !67
  br label %100

100:                                              ; preds = %66, %90
  %101 = load ptr, ptr %6, align 8, !tbaa !8
  %102 = getelementptr inbounds i8, ptr %101, i64 4
  %103 = load i8, ptr %102, align 1, !tbaa !19
  %104 = zext i8 %103 to i64
  %105 = shl i64 %104, 32
  %106 = load ptr, ptr %5, align 8, !tbaa !8
  %107 = getelementptr inbounds nuw %struct.BIT_DStream_t, ptr %106, i32 0, i32 0
  %108 = load i64, ptr %107, align 8, !tbaa !67
  %109 = add i64 %108, %105
  store i64 %109, ptr %107, align 8, !tbaa !67
  br label %110

110:                                              ; preds = %66, %100
  %111 = load ptr, ptr %6, align 8, !tbaa !8
  %112 = getelementptr inbounds i8, ptr %111, i64 3
  %113 = load i8, ptr %112, align 1, !tbaa !19
  %114 = zext i8 %113 to i64
  %115 = shl i64 %114, 24
  %116 = load ptr, ptr %5, align 8, !tbaa !8
  %117 = getelementptr inbounds nuw %struct.BIT_DStream_t, ptr %116, i32 0, i32 0
  %118 = load i64, ptr %117, align 8, !tbaa !67
  %119 = add i64 %118, %115
  store i64 %119, ptr %117, align 8, !tbaa !67
  br label %120

120:                                              ; preds = %66, %110
  %121 = load ptr, ptr %6, align 8, !tbaa !8
  %122 = getelementptr inbounds i8, ptr %121, i64 2
  %123 = load i8, ptr %122, align 1, !tbaa !19
  %124 = zext i8 %123 to i64
  %125 = shl i64 %124, 16
  %126 = load ptr, ptr %5, align 8, !tbaa !8
  %127 = getelementptr inbounds nuw %struct.BIT_DStream_t, ptr %126, i32 0, i32 0
  %128 = load i64, ptr %127, align 8, !tbaa !67
  %129 = add i64 %128, %125
  store i64 %129, ptr %127, align 8, !tbaa !67
  br label %130

130:                                              ; preds = %66, %120
  %131 = load ptr, ptr %6, align 8, !tbaa !8
  %132 = getelementptr inbounds i8, ptr %131, i64 1
  %133 = load i8, ptr %132, align 1, !tbaa !19
  %134 = zext i8 %133 to i64
  %135 = shl i64 %134, 8
  %136 = load ptr, ptr %5, align 8, !tbaa !8
  %137 = getelementptr inbounds nuw %struct.BIT_DStream_t, ptr %136, i32 0, i32 0
  %138 = load i64, ptr %137, align 8, !tbaa !67
  %139 = add i64 %138, %135
  store i64 %139, ptr %137, align 8, !tbaa !67
  br label %140

140:                                              ; preds = %66, %130
  br label %141

141:                                              ; preds = %140
  call void @llvm.lifetime.start.p0(i64 1, ptr %10) #10
  %142 = load ptr, ptr %6, align 8, !tbaa !8
  %143 = load i64, ptr %7, align 8, !tbaa !9
  %144 = sub i64 %143, 1
  %145 = getelementptr inbounds nuw i8, ptr %142, i64 %144
  %146 = load i8, ptr %145, align 1, !tbaa !19
  store i8 %146, ptr %10, align 1, !tbaa !19
  %147 = load i8, ptr %10, align 1, !tbaa !19
  %148 = zext i8 %147 to i32
  %149 = icmp ne i32 %148, 0
  br i1 %149, label %150, label %155

150:                                              ; preds = %141
  %151 = load i8, ptr %10, align 1, !tbaa !19
  %152 = zext i8 %151 to i32
  %153 = call i32 @ZSTD_highbit32(i32 noundef %152)
  %154 = sub i32 8, %153
  br label %156

155:                                              ; preds = %141
  br label %156

156:                                              ; preds = %155, %150
  %157 = phi i32 [ %154, %150 ], [ 0, %155 ]
  %158 = load ptr, ptr %5, align 8, !tbaa !8
  %159 = getelementptr inbounds nuw %struct.BIT_DStream_t, ptr %158, i32 0, i32 1
  store i32 %157, ptr %159, align 8, !tbaa !68
  %160 = load i8, ptr %10, align 1, !tbaa !19
  %161 = zext i8 %160 to i32
  %162 = icmp eq i32 %161, 0
  br i1 %162, label %163, label %164

163:                                              ; preds = %156
  store i64 -20, ptr %4, align 8
  store i32 1, ptr %9, align 4
  br label %165

164:                                              ; preds = %156
  store i32 0, ptr %9, align 4
  br label %165

165:                                              ; preds = %164, %163
  call void @llvm.lifetime.end.p0(i64 1, ptr %10) #10
  %166 = load i32, ptr %9, align 4
  switch i32 %166, label %180 [
    i32 0, label %167
    i32 1, label %178
  ]

167:                                              ; preds = %165
  %168 = load i64, ptr %7, align 8, !tbaa !9
  %169 = sub i64 8, %168
  %170 = trunc i64 %169 to i32
  %171 = mul i32 %170, 8
  %172 = load ptr, ptr %5, align 8, !tbaa !8
  %173 = getelementptr inbounds nuw %struct.BIT_DStream_t, ptr %172, i32 0, i32 1
  %174 = load i32, ptr %173, align 8, !tbaa !68
  %175 = add i32 %174, %171
  store i32 %175, ptr %173, align 8, !tbaa !68
  br label %176

176:                                              ; preds = %167, %65
  %177 = load i64, ptr %7, align 8, !tbaa !9
  store i64 %177, ptr %4, align 8
  br label %178

178:                                              ; preds = %176, %165, %63, %13
  %179 = load i64, ptr %4, align 8
  ret i64 %179

180:                                              ; preds = %165, %63
  unreachable
}